target datalayout = "e-m:e-p270:32:32-p271:32:32-p272:64:64-i64:64-i128:128-f80:128-n8:16:32:64-S128"
target triple = "x86_64-pc-linux-gnu"

%union.pthread_mutex_t = type { %struct.__pthread_mutex_s }
%struct.__pthread_mutex_s = type { i32, i32, i32, i32, i32, i16, i16, %struct.__pthread_internal_list }
%struct.__pthread_internal_list = type { ptr, ptr }
%struct.WOLFSSL_BUFFER_INFO = type { ptr, i32 }
%struct.RecordLayerHeader = type { i8, i8, i8, [2 x i8] }
%struct.WOLFSSL = type <{ ptr, ptr, ptr, ptr, [48 x i8], [48 x i8], ptr, ptr, ptr, ptr, ptr, ptr, ptr, ptr, ptr, ptr, ptr, ptr, ptr, i32, [4 x i8], %struct.WOLFSSL_CIPHER, ptr, %struct.Ciphers, %struct.Ciphers, [8 x i8], %struct.Buffers, ptr, ptr, %struct.WOLFSSL_ALERT_HISTORY, %struct.WOLFSSL_ALERT, i32, i32, i32, i32, i32, i32, i32, i16, [2 x i8], i32, i8, %struct.RecordLayerHeader, %struct.MsgsReceived, %struct.ProtocolVersion, %struct.ProtocolVersion, %struct.CipherSpecs, [2 x i8], %struct.Keys, %struct.Options, ptr, i8, i8, i16, [10 x i16], i8, i8, i16, i16, [38 x i8], i32, i32, [4 x i8], ptr, i8, i8, [6 x i8], ptr, ptr, i16, i8, i8, i32, i8, [3 x i8], i32, %struct.OneTimeAuth, ptr }>
%struct.WOLFSSL_CIPHER = type { i8, i8, ptr }
%struct.Ciphers = type { ptr, ptr, ptr, ptr, i8, i8 }
%struct.Buffers = type { %struct.bufferStatic, %struct.bufferStatic, %struct.WOLFSSL_BUFFER_INFO, %struct.WOLFSSL_BUFFER_INFO, %struct.WOLFSSL_BUFFER_INFO, %struct.WOLFSSL_BUFFER_INFO, i32, i32, i8, i8, i8, i8, %struct.WOLFSSL_BUFFER_INFO, %struct.WOLFSSL_BUFFER_INFO, %struct.WOLFSSL_BUFFER_INFO, %struct.WOLFSSL_BUFFER_INFO, ptr, ptr, ptr, i8, i8, i32, i32, ptr, i32, [1 x ptr] }
%struct.bufferStatic = type { [5 x i8], ptr, i32, i32, i32, i8, i8 }
%struct.WOLFSSL_ALERT_HISTORY = type { %struct.WOLFSSL_ALERT, %struct.WOLFSSL_ALERT }
%struct.WOLFSSL_ALERT = type { i32, i32 }
%struct.MsgsReceived = type { i32 }
%struct.ProtocolVersion = type { i8, i8 }
%struct.CipherSpecs = type { i16, i16, i16, i16, i8, i8, i8, i8, i8, i8, i8, i8 }
%struct.Keys = type { [64 x i8], [64 x i8], [32 x i8], [32 x i8], [16 x i8], [16 x i8], [8 x i8], [12 x i8], [12 x i8], i32, i32, i32, i32, i32, i32, i8, i8, i8, i8 }
%struct.Options = type { i64, i64, i8, i8, i8, i8, i8, i8, i8, i8, i8, i8, i8, i8, i8, i8, i8, i8, i8, i8, i8, i8, i8, i16, i16, i16, i16, i16, i8 }
%struct.OneTimeAuth = type { ptr, i8 }
%struct.WOLFSSL_SESSION = type { i32, i32, %struct.wolfSSL_RefWithMutex, [32 x i8], i8, ptr, i8, i32, i32, [32 x i8], i8, [48 x i8], i16, i8, i8, i16, [20 x i8], i16, i8 }
%struct.wolfSSL_RefWithMutex = type { %union.pthread_mutex_t, i32 }

@.str = private unnamed_addr constant [33 x i8] c"\0AERROR - %s line %d failed with:\00", align 1
@.str.1 = private unnamed_addr constant [105 x i8] c"generated/home/dtcxzyw/WorkSpace/Projects/compilers/llvm-opt-benchmark/bench/wolfssl/wolfssl/tests/api.c\00", align 1
@.str.2 = private unnamed_addr constant [16 x i8] c"\0A    expected: \00", align 1
@stdout = external global ptr, align 8
@.str.3 = private unnamed_addr constant [9 x i8] c"%s == %s\00", align 1
@.str.6 = private unnamed_addr constant [16 x i8] c"\0A    result:   \00", align 1
@.str.7 = private unnamed_addr constant [9 x i8] c"%d != %d\00", align 1
@.str.8 = private unnamed_addr constant [3 x i8] c"\0A\0A\00", align 1
@.str.989 = private unnamed_addr constant [15 x i8] c"%s is not null\00", align 1
@.str.993 = private unnamed_addr constant [16 x i8] c"WOLFSSL_SUCCESS\00", align 1
@.str.1603 = private unnamed_addr constant [31 x i8] c"wolfSSL_set_session(ssl, sess)\00", align 1
@.str.2079 = private unnamed_addr constant [32 x i8] c"sess = wolfSSL_get_session(ssl)\00", align 1
@.str.2080 = private unnamed_addr constant [40 x i8] c"sess = wolfSSL_get_session(ssl) => NULL\00", align 1

; Function Attrs: nounwind uwtable
define internal i32 @test_short_session_id_ssl_ready(ptr noundef %0) #0 {
  %2 = alloca ptr, align 8
  %3 = alloca i32, align 4
  %4 = alloca i32, align 4
  %5 = alloca ptr, align 8
  %6 = alloca i32, align 4
  %7 = alloca i32, align 4
  store ptr %0, ptr %2, align 8, !tbaa !85
  call void @llvm.lifetime.start.p0(i64 4, ptr %3) #14
  store i32 3, ptr %3, align 4, !tbaa !10
  call void @llvm.lifetime.start.p0(i64 4, ptr %4) #14
  store i32 0, ptr %4, align 4, !tbaa !10
  call void @llvm.lifetime.start.p0(i64 8, ptr %5) #14
  store ptr null, ptr %5, align 8, !tbaa !153
  %8 = load ptr, ptr %2, align 8, !tbaa !85
  %9 = getelementptr inbounds nuw %struct.WOLFSSL, ptr %8, i32 0, i32 27
  %10 = load ptr, ptr %9, align 16, !tbaa !261
  %11 = getelementptr inbounds nuw %struct.WOLFSSL_SESSION, ptr %10, i32 0, i32 8
  store i32 -1, ptr %11, align 8, !tbaa !286
  %12 = load ptr, ptr %2, align 8, !tbaa !85
  %13 = getelementptr inbounds nuw %struct.WOLFSSL, ptr %12, i32 0, i32 27
  %14 = load ptr, ptr %13, align 16, !tbaa !261
  %15 = getelementptr inbounds nuw %struct.WOLFSSL_SESSION, ptr %14, i32 0, i32 6
  store i8 1, ptr %15, align 8, !tbaa !289
  %16 = load ptr, ptr %2, align 8, !tbaa !85
  %17 = getelementptr inbounds nuw %struct.WOLFSSL, ptr %16, i32 0, i32 27
  %18 = load ptr, ptr %17, align 16, !tbaa !261
  %19 = getelementptr inbounds nuw %struct.WOLFSSL_SESSION, ptr %18, i32 0, i32 10
  store i8 4, ptr %19, align 4, !tbaa !290
  %20 = load ptr, ptr %2, align 8, !tbaa !85
  %21 = getelementptr inbounds nuw %struct.WOLFSSL, ptr %20, i32 0, i32 27
  %22 = load ptr, ptr %21, align 16, !tbaa !261
  %23 = getelementptr inbounds nuw %struct.WOLFSSL_SESSION, ptr %22, i32 0, i32 15
  store i16 4, ptr %23, align 2, !tbaa !291
  %24 = load ptr, ptr %2, align 8, !tbaa !85
  %25 = getelementptr inbounds nuw %struct.WOLFSSL, ptr %24, i32 0, i32 27
  %26 = load ptr, ptr %25, align 16, !tbaa !261
  %27 = getelementptr inbounds nuw %struct.WOLFSSL_SESSION, ptr %26, i32 0, i32 18
  %28 = load i8, ptr %27, align 2
  %29 = and i8 %28, -2
  %30 = or i8 %29, 1
  store i8 %30, ptr %27, align 2
  br label %31

31:                                               ; preds = %1
  %32 = load i32, ptr %3, align 4, !tbaa !10
  %33 = icmp eq i32 %32, 1
  br i1 %33, label %43, label %34

34:                                               ; preds = %31
  %35 = load i32, ptr %3, align 4, !tbaa !10
  %36 = icmp eq i32 %35, 3
  br i1 %36, label %43, label %37

37:                                               ; preds = %34
  %38 = load i32, ptr %3, align 4, !tbaa !10
  %39 = icmp eq i32 %38, 2
  br i1 %39, label %43, label %40

40:                                               ; preds = %37
  %41 = load i32, ptr %3, align 4, !tbaa !10
  %42 = icmp eq i32 %41, 4
  br i1 %42, label %43, label %78

43:                                               ; preds = %40, %37, %34, %31
  %44 = load ptr, ptr %2, align 8, !tbaa !85
  %45 = call ptr @wolfSSL_get_session(ptr noundef %44)
  store ptr %45, ptr %5, align 8, !tbaa !153
  %46 = icmp ne ptr %45, null
  br i1 %46, label %71, label %47

47:                                               ; preds = %43
  br label %48

48:                                               ; preds = %47
  %49 = load i32, ptr %3, align 4, !tbaa !10
  %50 = icmp eq i32 %49, 2
  br i1 %50, label %54, label %51

51:                                               ; preds = %48
  %52 = load i32, ptr %3, align 4, !tbaa !10
  %53 = icmp eq i32 %52, 4
  br i1 %53, label %54, label %56

54:                                               ; preds = %51, %48
  %55 = load i32, ptr %4, align 4, !tbaa !10
  store i32 %55, ptr %3, align 4, !tbaa !10
  br label %68

56:                                               ; preds = %51
  %57 = call i32 (ptr, ...) @printf(ptr noundef @.str, ptr noundef @.str.1, i32 noundef 94706)
  %58 = load ptr, ptr @stdout, align 8, !tbaa !22
  %59 = call i32 @fputs(ptr noundef @.str.2, ptr noundef %58)
  %60 = call i32 (ptr, ...) @printf(ptr noundef @.str.989, ptr noundef @.str.2079)
  %61 = load ptr, ptr @stdout, align 8, !tbaa !22
  %62 = call i32 @fputs(ptr noundef @.str.6, ptr noundef %61)
  %63 = call i32 (ptr, ...) @printf(ptr noundef @.str.2080)
  %64 = load ptr, ptr @stdout, align 8, !tbaa !22
  %65 = call i32 @fputs(ptr noundef @.str.8, ptr noundef %64)
  %66 = load ptr, ptr @stdout, align 8, !tbaa !22
  %67 = call i32 @fflush(ptr noundef %66)
  store i32 0, ptr %3, align 4, !tbaa !10
  br label %68

68:                                               ; preds = %56, %54
  br label %69

69:                                               ; preds = %68
  br label %70

70:                                               ; preds = %69
  br label %77

71:                                               ; preds = %43
  %72 = load i32, ptr %3, align 4, !tbaa !10
  %73 = icmp eq i32 %72, 4
  br i1 %73, label %74, label %75

74:                                               ; preds = %71
  store i32 2, ptr %3, align 4, !tbaa !10
  br label %76

75:                                               ; preds = %71
  store i32 1, ptr %3, align 4, !tbaa !10
  br label %76

76:                                               ; preds = %75, %74
  br label %77

77:                                               ; preds = %76, %70
  br label %78

78:                                               ; preds = %77, %40
  %79 = load i32, ptr %3, align 4, !tbaa !10
  %80 = icmp eq i32 %79, 2
  br i1 %80, label %81, label %84

81:                                               ; preds = %78
  %82 = load i32, ptr %4, align 4, !tbaa !10
  %83 = add nsw i32 %82, -1
  store i32 %83, ptr %4, align 4, !tbaa !10
  br label %84

84:                                               ; preds = %81, %78
  br label %85

85:                                               ; preds = %84
  br label %86

86:                                               ; preds = %85
  br label %87

87:                                               ; preds = %86
  %88 = load i32, ptr %3, align 4, !tbaa !10
  %89 = icmp eq i32 %88, 1
  br i1 %89, label %99, label %90

90:                                               ; preds = %87
  %91 = load i32, ptr %3, align 4, !tbaa !10
  %92 = icmp eq i32 %91, 3
  br i1 %92, label %99, label %93

93:                                               ; preds = %90
  %94 = load i32, ptr %3, align 4, !tbaa !10
  %95 = icmp eq i32 %94, 2
  br i1 %95, label %99, label %96

96:                                               ; preds = %93
  %97 = load i32, ptr %3, align 4, !tbaa !10
  %98 = icmp eq i32 %97, 4
  br i1 %98, label %99, label %161

99:                                               ; preds = %96, %93, %90, %87
  call void @llvm.lifetime.start.p0(i64 4, ptr %6) #14
  %100 = load ptr, ptr %2, align 8, !tbaa !85
  %101 = load ptr, ptr %5, align 8, !tbaa !153
  %102 = call i32 @wolfSSL_set_session(ptr noundef %100, ptr noundef %101)
  store i32 %102, ptr %6, align 4, !tbaa !10
  call void @llvm.lifetime.start.p0(i64 4, ptr %7) #14
  store i32 1, ptr %7, align 4, !tbaa !10
  br label %103

103:                                              ; preds = %99
  %104 = load i32, ptr %3, align 4, !tbaa !10
  %105 = icmp eq i32 %104, 1
  br i1 %105, label %115, label %106

106:                                              ; preds = %103
  %107 = load i32, ptr %3, align 4, !tbaa !10
  %108 = icmp eq i32 %107, 3
  br i1 %108, label %115, label %109

109:                                              ; preds = %106
  %110 = load i32, ptr %3, align 4, !tbaa !10
  %111 = icmp eq i32 %110, 2
  br i1 %111, label %115, label %112

112:                                              ; preds = %109
  %113 = load i32, ptr %3, align 4, !tbaa !10
  %114 = icmp eq i32 %113, 4
  br i1 %114, label %115, label %152

115:                                              ; preds = %112, %109, %106, %103
  %116 = load i32, ptr %6, align 4, !tbaa !10
  %117 = load i32, ptr %7, align 4, !tbaa !10
  %118 = icmp eq i32 %116, %117
  br i1 %118, label %145, label %119

119:                                              ; preds = %115
  br label %120

120:                                              ; preds = %119
  %121 = load i32, ptr %3, align 4, !tbaa !10
  %122 = icmp eq i32 %121, 2
  br i1 %122, label %126, label %123

123:                                              ; preds = %120
  %124 = load i32, ptr %3, align 4, !tbaa !10
  %125 = icmp eq i32 %124, 4
  br i1 %125, label %126, label %128

126:                                              ; preds = %123, %120
  %127 = load i32, ptr %4, align 4, !tbaa !10
  store i32 %127, ptr %3, align 4, !tbaa !10
  br label %142

128:                                              ; preds = %123
  %129 = call i32 (ptr, ...) @printf(ptr noundef @.str, ptr noundef @.str.1, i32 noundef 94707)
  %130 = load ptr, ptr @stdout, align 8, !tbaa !22
  %131 = call i32 @fputs(ptr noundef @.str.2, ptr noundef %130)
  %132 = call i32 (ptr, ...) @printf(ptr noundef @.str.3, ptr noundef @.str.1603, ptr noundef @.str.993)
  %133 = load ptr, ptr @stdout, align 8, !tbaa !22
  %134 = call i32 @fputs(ptr noundef @.str.6, ptr noundef %133)
  %135 = load i32, ptr %6, align 4, !tbaa !10
  %136 = load i32, ptr %7, align 4, !tbaa !10
  %137 = call i32 (ptr, ...) @printf(ptr noundef @.str.7, i32 noundef %135, i32 noundef %136)
  %138 = load ptr, ptr @stdout, align 8, !tbaa !22
  %139 = call i32 @fputs(ptr noundef @.str.8, ptr noundef %138)
  %140 = load ptr, ptr @stdout, align 8, !tbaa !22
  %141 = call i32 @fflush(ptr noundef %140)
  store i32 0, ptr %3, align 4, !tbaa !10
  br label %142

142:                                              ; preds = %128, %126
  br label %143

143:                                              ; preds = %142
  br label %144

144:                                              ; preds = %143
  br label %151

145:                                              ; preds = %115
  %146 = load i32, ptr %3, align 4, !tbaa !10
  %147 = icmp eq i32 %146, 4
  br i1 %147, label %148, label %149

148:                                              ; preds = %145
  store i32 2, ptr %3, align 4, !tbaa !10
  br label %150

149:                                              ; preds = %145
  store i32 1, ptr %3, align 4, !tbaa !10
  br label %150

150:                                              ; preds = %149, %148
  br label %151

151:                                              ; preds = %150, %144
  br label %152

152:                                              ; preds = %151, %112
  %153 = load i32, ptr %3, align 4, !tbaa !10
  %154 = icmp eq i32 %153, 2
  br i1 %154, label %155, label %158

155:                                              ; preds = %152
  %156 = load i32, ptr %4, align 4, !tbaa !10
  %157 = add nsw i32 %156, -1
  store i32 %157, ptr %4, align 4, !tbaa !10
  br label %158

158:                                              ; preds = %155, %152
  br label %159

159:                                              ; preds = %158
  br label %160

160:                                              ; preds = %159
  call void @llvm.lifetime.end.p0(i64 4, ptr %7) #14
  call void @llvm.lifetime.end.p0(i64 4, ptr %6) #14
  br label %161

161:                                              ; preds = %160, %96
  br label %162

162:                                              ; preds = %161
  br label %163

163:                                              ; preds = %162
  %164 = load i32, ptr %3, align 4, !tbaa !10
  %165 = icmp eq i32 %164, 2
  br i1 %165, label %166, label %167

166:                                              ; preds = %163
  br label %175

167:                                              ; preds = %163
  %168 = load i32, ptr %3, align 4, !tbaa !10
  %169 = icmp eq i32 %168, 4
  br i1 %169, label %170, label %171

170:                                              ; preds = %167
  br label %173

171:                                              ; preds = %167
  %172 = load i32, ptr %3, align 4, !tbaa !10
  br label %173

173:                                              ; preds = %171, %170
  %174 = phi i32 [ 3, %170 ], [ %172, %171 ]
  br label %175

175:                                              ; preds = %173, %166
  %176 = phi i32 [ 1, %166 ], [ %174, %173 ]
  call void @llvm.lifetime.end.p0(i64 8, ptr %5) #14
  call void @llvm.lifetime.end.p0(i64 4, ptr %4) #14
  call void @llvm.lifetime.end.p0(i64 4, ptr %3) #14
  ret i32 %176
}