; Function Attrs: nounwind uwtable
define internal range(i32 0, 2) i32 @test_short_session_id_ssl_ready(ptr noundef %0) #0 {
  %2 = getelementptr inbounds nuw i8, ptr %0, i64 624
  %3 = load ptr, ptr %2, align 16, !tbaa !216
  %4 = getelementptr inbounds nuw i8, ptr %3, i64 112
  store i32 -1, ptr %4, align 8, !tbaa !242
  %5 = getelementptr inbounds nuw i8, ptr %3, i64 104
  store i8 1, ptr %5, align 8, !tbaa !245
  %6 = getelementptr inbounds nuw i8, ptr %3, i64 148
  store i8 4, ptr %6, align 4, !tbaa !246
  %7 = getelementptr inbounds nuw i8, ptr %3, i64 202
  store i16 4, ptr %7, align 2, !tbaa !247
  %8 = getelementptr inbounds nuw i8, ptr %3, i64 226
  %9 = load i8, ptr %8, align 2
  %10 = or i8 %9, 1
  store i8 %10, ptr %8, align 2
  %11 = tail call ptr @wolfSSL_get_session(ptr noundef %0) #27
  %.not.not = icmp eq ptr %11, null
  br i1 %.not.not, label %.thread, label %19

.thread:                                          ; preds = %1
  %12 = tail call i32 (ptr, ...) @printf(ptr noundef nonnull dereferenceable(1) @.str, ptr noundef nonnull @.str.1, i32 noundef 94706)
  %13 = load ptr, ptr @stdout, align 8, !tbaa !22
  %14 = tail call i64 @fwrite(ptr nonnull @.str.2, i64 15, i64 1, ptr %13)
  %15 = tail call i32 (ptr, ...) @printf(ptr noundef nonnull dereferenceable(1) @.str.989, ptr noundef nonnull @.str.2079)
  %16 = load ptr, ptr @stdout, align 8, !tbaa !22
  %17 = tail call i64 @fwrite(ptr nonnull @.str.6, i64 15, i64 1, ptr %16)
  %18 = tail call i32 (ptr, ...) @printf(ptr noundef nonnull dereferenceable(1) @.str.2080)
  br label %.sink.split

19:                                               ; preds = %1
  %20 = tail call i32 @wolfSSL_set_session(ptr noundef nonnull %0, ptr noundef nonnull %11) #27
  %21 = icmp eq i32 %20, 1
  br i1 %21, label %34, label %22

22:                                               ; preds = %19
  %23 = tail call i32 (ptr, ...) @printf(ptr noundef nonnull dereferenceable(1) @.str, ptr noundef nonnull @.str.1, i32 noundef 94707)
  %24 = load ptr, ptr @stdout, align 8, !tbaa !22
  %25 = tail call i64 @fwrite(ptr nonnull @.str.2, i64 15, i64 1, ptr %24)
  %26 = tail call i32 (ptr, ...) @printf(ptr noundef nonnull dereferenceable(1) @.str.3, ptr noundef nonnull @.str.1603, ptr noundef nonnull @.str.993)
  %27 = load ptr, ptr @stdout, align 8, !tbaa !22
  %28 = tail call i64 @fwrite(ptr nonnull @.str.6, i64 15, i64 1, ptr %27)
  %29 = tail call i32 (ptr, ...) @printf(ptr noundef nonnull dereferenceable(1) @.str.7, i32 noundef %20, i32 noundef 1)
  br label %.sink.split

.sink.split:                                      ; preds = %22, %.thread
  %30 = load ptr, ptr @stdout, align 8, !tbaa !22
  %31 = tail call i64 @fwrite(ptr nonnull @.str.8, i64 2, i64 1, ptr %30)
  %32 = load ptr, ptr @stdout, align 8, !tbaa !22
  %33 = tail call i32 @fflush(ptr noundef %32)
  br label %34

34:                                               ; preds = %.sink.split, %19
  %.2 = phi i32 [ 1, %19 ], [ 0, %.sink.split ]
  ret i32 %.2
}